target datalayout = "e-m:e-p270:32:32-p271:32:32-p272:64:64-i64:64-i128:128-f80:128-n8:16:32:64-S128"
target triple = "x86_64-pc-linux-gnu"

%struct.lua_State = type { %struct.GCRef, i8, i8, i8, i8, %struct.MRef, %struct.GCRef, ptr, ptr, %struct.MRef, %struct.MRef, %struct.GCRef, %struct.GCRef, ptr, i32 }
%struct.MRef = type { i64 }
%struct.GCRef = type { i64 }
%struct.GCudata = type { %struct.GCRef, i8, i8, i8, i8, %struct.GCRef, i32, %struct.GCRef, i32 }
%struct.IOFileUD = type { ptr, i32 }

@.str = private unnamed_addr constant [6 x i8] c"FILE*\00", align 1

; Function Attrs: nounwind uwtable
define internal ptr @io_tofilep(ptr noundef %0) #0 {
  %2 = alloca ptr, align 8
  store ptr %0, ptr %2, align 8, !tbaa !4
  %3 = load ptr, ptr %2, align 8, !tbaa !4
  %4 = getelementptr inbounds nuw %struct.lua_State, ptr %3, i32 0, i32 7
  %5 = load ptr, ptr %4, align 8, !tbaa !35
  %6 = load ptr, ptr %2, align 8, !tbaa !4
  %7 = getelementptr inbounds nuw %struct.lua_State, ptr %6, i32 0, i32 8
  %8 = load ptr, ptr %7, align 8, !tbaa !9
  %9 = icmp ult ptr %5, %8
  br i1 %9, label %10, label %30

10:                                               ; preds = %1
  %11 = load ptr, ptr %2, align 8, !tbaa !4
  %12 = getelementptr inbounds nuw %struct.lua_State, ptr %11, i32 0, i32 7
  %13 = load ptr, ptr %12, align 8, !tbaa !35
  %14 = load i64, ptr %13, align 8, !tbaa !22
  %15 = ashr i64 %14, 47
  %16 = trunc i64 %15 to i32
  %17 = icmp eq i32 %16, -13
  br i1 %17, label %18, label %30

18:                                               ; preds = %10
  %19 = load ptr, ptr %2, align 8, !tbaa !4
  %20 = getelementptr inbounds nuw %struct.lua_State, ptr %19, i32 0, i32 7
  %21 = load ptr, ptr %20, align 8, !tbaa !35
  %22 = getelementptr inbounds nuw %struct.GCRef, ptr %21, i32 0, i32 0
  %23 = load i64, ptr %22, align 8, !tbaa !22
  %24 = and i64 %23, 140737488355327
  %25 = inttoptr i64 %24 to ptr
  %26 = getelementptr inbounds nuw %struct.GCudata, ptr %25, i32 0, i32 3
  %27 = load i8, ptr %26, align 2, !tbaa !22
  %28 = zext i8 %27 to i32
  %29 = icmp eq i32 %28, 1
  br i1 %29, label %32, label %30

30:                                               ; preds = %18, %10, %1
  %31 = load ptr, ptr %2, align 8, !tbaa !4
  call void @lj_err_argtype(ptr noundef %31, i32 noundef 1, ptr noundef @.str) #11
  unreachable

32:                                               ; preds = %18
  %33 = load ptr, ptr %2, align 8, !tbaa !4
  %34 = getelementptr inbounds nuw %struct.lua_State, ptr %33, i32 0, i32 7
  %35 = load ptr, ptr %34, align 8, !tbaa !35
  %36 = getelementptr inbounds nuw %struct.GCRef, ptr %35, i32 0, i32 0
  %37 = load i64, ptr %36, align 8, !tbaa !22
  %38 = and i64 %37, 140737488355327
  %39 = inttoptr i64 %38 to ptr
  %40 = getelementptr inbounds %struct.GCudata, ptr %39, i64 1
  ret ptr %40
}

; Function Attrs: nounwind uwtable
define internal i32 @io_file_lines(ptr noundef %0) #0 {
  %2 = alloca ptr, align 8
  %3 = alloca i32, align 4
  store ptr %0, ptr %2, align 8, !tbaa !4
  call void @llvm.lifetime.start.p0(i64 4, ptr %3) #10
  %4 = load ptr, ptr %2, align 8, !tbaa !4
  %5 = getelementptr inbounds nuw %struct.lua_State, ptr %4, i32 0, i32 8
  %6 = load ptr, ptr %5, align 8, !tbaa !9
  %7 = load ptr, ptr %2, align 8, !tbaa !4
  %8 = getelementptr inbounds nuw %struct.lua_State, ptr %7, i32 0, i32 7
  %9 = load ptr, ptr %8, align 8, !tbaa !35
  %10 = ptrtoint ptr %6 to i64
  %11 = ptrtoint ptr %9 to i64
  %12 = sub i64 %10, %11
  %13 = sdiv exact i64 %12, 8
  %14 = trunc i64 %13 to i32
  store i32 %14, ptr %3, align 4, !tbaa !36
  %15 = load i32, ptr %3, align 4, !tbaa !36
  %16 = icmp sgt i32 %15, 60
  br i1 %16, label %17, label %19

17:                                               ; preds = %1
  %18 = load ptr, ptr %2, align 8, !tbaa !4
  call void @lj_err_caller(ptr noundef %18, i32 noundef 987) #11
  unreachable

19:                                               ; preds = %1
  %20 = load ptr, ptr %2, align 8, !tbaa !4
  %21 = load i32, ptr %3, align 4, !tbaa !36
  call void @lua_pushcclosure(ptr noundef %20, ptr noundef @io_file_iter, i32 noundef %21)
  call void @llvm.lifetime.end.p0(i64 4, ptr %3) #10
  ret i32 1
}

; Function Attrs: nounwind uwtable
define internal ptr @io_tofile(ptr noundef %0) #0 {
  %2 = alloca ptr, align 8
  %3 = alloca ptr, align 8
  store ptr %0, ptr %2, align 8, !tbaa !4
  call void @llvm.lifetime.start.p0(i64 8, ptr %3) #10
  %4 = load ptr, ptr %2, align 8, !tbaa !4
  %5 = call ptr @io_tofilep(ptr noundef %4)
  store ptr %5, ptr %3, align 8, !tbaa !25
  %6 = load ptr, ptr %3, align 8, !tbaa !25
  %7 = getelementptr inbounds nuw %struct.IOFileUD, ptr %6, i32 0, i32 0
  %8 = load ptr, ptr %7, align 8, !tbaa !32
  %9 = icmp eq ptr %8, null
  br i1 %9, label %10, label %12

10:                                               ; preds = %1
  %11 = load ptr, ptr %2, align 8, !tbaa !4
  call void @lj_err_caller(ptr noundef %11, i32 noundef 1531) #11
  unreachable

12:                                               ; preds = %1
  %13 = load ptr, ptr %3, align 8, !tbaa !25
  call void @llvm.lifetime.end.p0(i64 8, ptr %3) #10
  ret ptr %13
}

; Function Attrs: nounwind uwtable
define internal i32 @lj_cf_io_method_lines(ptr noundef %0) #0 {
  %2 = alloca ptr, align 8
  store ptr %0, ptr %2, align 8, !tbaa !4
  %3 = load ptr, ptr %2, align 8, !tbaa !4
  %4 = call ptr @io_tofile(ptr noundef %3)
  %5 = load ptr, ptr %2, align 8, !tbaa !4
  %6 = call i32 @io_file_lines(ptr noundef %5)
  ret i32 %6
}